target datalayout = "e-m:e-p270:32:32-p271:32:32-p272:64:64-i64:64-i128:128-f80:128-n8:16:32:64-S128"
target triple = "x86_64-pc-linux-gnu"

%struct.expert_field = type { i32, i32 }

@hf_hdr_name_value = internal global i32 0, align 4
@ei_wsp_oversized_uintvar = internal global %struct.expert_field zeroinitializer, align 4
@ei_wsp_header_invalid_value = internal global %struct.expert_field zeroinitializer, align 4
@ett_text_header = internal global i32 0, align 4
@.str.1073 = private unnamed_addr constant [11 x i8] c"Header: %s\00", align 1

; Function Attrs: null_pointer_is_valid sspstrong uwtable
define internal i32 @wkh_text_header_func(ptr noundef %0, ptr noundef %1, i32 noundef %2, ptr noundef %3, i32 noundef %4, ptr noundef %5) #1 {
  %7 = alloca ptr, align 8
  %8 = alloca ptr, align 8
  %9 = alloca i32, align 4
  %10 = alloca ptr, align 8
  %11 = alloca i32, align 4
  %12 = alloca ptr, align 8
  %13 = alloca i8, align 1
  %14 = alloca ptr, align 8
  %15 = alloca ptr, align 8
  %16 = alloca i32, align 4
  %17 = alloca i8, align 1
  %18 = alloca i32, align 4
  %19 = alloca i32, align 4
  %20 = alloca i32, align 4
  %21 = alloca ptr, align 8
  %22 = alloca ptr, align 8
  store ptr %0, ptr %7, align 8
  store ptr %1, ptr %8, align 8
  store i32 %2, ptr %9, align 4
  store ptr %3, ptr %10, align 8
  store i32 %4, ptr %11, align 4
  store ptr %5, ptr %12, align 8
  call void @llvm.lifetime.start.p0(i64 1, ptr %13) #8
  store i8 0, ptr %13, align 1
  call void @llvm.lifetime.start.p0(i64 8, ptr %14) #8
  call void @llvm.lifetime.start.p0(i64 8, ptr %15) #8
  call void @llvm.lifetime.start.p0(i64 4, ptr %16) #8
  %23 = load i32, ptr %9, align 4
  %24 = add i32 %23, 1
  store i32 %24, ptr %16, align 4
  call void @llvm.lifetime.start.p0(i64 1, ptr %17) #8
  %25 = load ptr, ptr %8, align 8
  %26 = load i32, ptr %16, align 4
  %27 = call zeroext i8 @tvb_get_uint8(ptr noundef %25, i32 noundef %26)
  store i8 %27, ptr %17, align 1
  call void @llvm.lifetime.start.p0(i64 4, ptr %18) #8
  %28 = load i32, ptr %16, align 4
  store i32 %28, ptr %18, align 4
  call void @llvm.lifetime.start.p0(i64 4, ptr %19) #8
  call void @llvm.lifetime.start.p0(i64 4, ptr %20) #8
  call void @llvm.lifetime.start.p0(i64 8, ptr %21) #8
  store ptr null, ptr %21, align 8
  call void @llvm.lifetime.start.p0(i64 8, ptr %22) #8
  %29 = call ptr @wmem_packet_scope()
  %30 = load ptr, ptr %12, align 8
  %31 = call noalias ptr (ptr, ptr, ...) @wmem_strdup_printf(ptr noundef %29, ptr noundef @.str.1073, ptr noundef %30)
  store ptr %31, ptr %22, align 8
  %32 = load ptr, ptr %7, align 8
  %33 = load ptr, ptr %8, align 8
  %34 = load i32, ptr %9, align 4
  %35 = load i32, ptr %18, align 4
  %36 = load i32, ptr %9, align 4
  %37 = sub i32 %35, %36
  %38 = load i32, ptr @ett_text_header, align 4
  %39 = load ptr, ptr %22, align 8
  %40 = call ptr @proto_tree_add_subtree(ptr noundef %32, ptr noundef %33, i32 noundef %34, i32 noundef %37, i32 noundef %38, ptr noundef %15, ptr noundef %39)
  store ptr %40, ptr %14, align 8
  %41 = load ptr, ptr %14, align 8
  %42 = load i32, ptr @hf_hdr_name_value, align 4
  %43 = load ptr, ptr %8, align 8
  %44 = load i32, ptr %9, align 4
  %45 = call ptr @proto_tree_add_item(ptr noundef %41, i32 noundef %42, ptr noundef %43, i32 noundef %44, i32 noundef 1, i32 noundef 0)
  %46 = load i8, ptr %17, align 1
  %47 = zext i8 %46 to i32
  %48 = and i32 %47, 128
  %49 = icmp ne i32 %48, 0
  br i1 %49, label %50, label %53

50:                                               ; preds = %6
  %51 = load i32, ptr %18, align 4
  %52 = add i32 %51, 1
  store i32 %52, ptr %18, align 4
  br label %102

53:                                               ; preds = %6
  %54 = load i8, ptr %17, align 1
  %55 = zext i8 %54 to i32
  %56 = icmp eq i32 %55, 0
  br i1 %56, label %61, label %57

57:                                               ; preds = %53
  %58 = load i8, ptr %17, align 1
  %59 = zext i8 %58 to i32
  %60 = icmp sge i32 %59, 32
  br i1 %60, label %61, label %78

61:                                               ; preds = %57, %53
  %62 = call ptr @wmem_packet_scope()
  %63 = load ptr, ptr %8, align 8
  %64 = load i32, ptr %16, align 4
  %65 = call ptr @tvb_get_stringz_enc(ptr noundef %62, ptr noundef %63, i32 noundef %64, ptr noundef %19, i32 noundef 0)
  store ptr %65, ptr %21, align 8
  %66 = load i32, ptr %16, align 4
  %67 = load i32, ptr %19, align 4
  %68 = add i32 %66, %67
  store i32 %68, ptr %18, align 4
  %69 = load ptr, ptr %7, align 8
  %70 = load i32, ptr %11, align 4
  %71 = load ptr, ptr %8, align 8
  %72 = load i32, ptr %9, align 4
  %73 = load i32, ptr %18, align 4
  %74 = load i32, ptr %9, align 4
  %75 = sub i32 %73, %74
  %76 = load ptr, ptr %21, align 8
  %77 = call ptr @proto_tree_add_string(ptr noundef %69, i32 noundef %70, ptr noundef %71, i32 noundef %72, i32 noundef %75, ptr noundef %76)
  store i8 1, ptr %13, align 1
  br label %101

78:                                               ; preds = %57
  %79 = load i8, ptr %17, align 1
  %80 = zext i8 %79 to i32
  %81 = icmp eq i32 %80, 31
  br i1 %81, label %82, label %90

82:                                               ; preds = %78
  %83 = load ptr, ptr %8, align 8
  %84 = load i32, ptr %16, align 4
  %85 = add i32 %84, 1
  %86 = load ptr, ptr %10, align 8
  %87 = call i32 @tvb_get_uintvar(ptr noundef %83, i32 noundef %85, ptr noundef %20, ptr noundef %86, ptr noundef @ei_wsp_oversized_uintvar)
  store i32 %87, ptr %19, align 4
  %88 = load i32, ptr %20, align 4
  %89 = add i32 %88, 1
  store i32 %89, ptr %20, align 4
  br label %95

90:                                               ; preds = %78
  %91 = load ptr, ptr %8, align 8
  %92 = load i32, ptr %18, align 4
  %93 = call zeroext i8 @tvb_get_uint8(ptr noundef %91, i32 noundef %92)
  %94 = zext i8 %93 to i32
  store i32 %94, ptr %19, align 4
  store i32 1, ptr %20, align 4
  br label %95

95:                                               ; preds = %90, %82
  %96 = load i32, ptr %20, align 4
  %97 = load i32, ptr %19, align 4
  %98 = add i32 %96, %97
  %99 = load i32, ptr %18, align 4
  %100 = add i32 %99, %98
  store i32 %100, ptr %18, align 4
  br label %101

101:                                              ; preds = %95, %61
  br label %102

102:                                              ; preds = %101, %50
  %103 = load i8, ptr %13, align 1, !range !6, !noundef !7
  %104 = trunc i8 %103 to i1
  br i1 %104, label %109, label %105

105:                                              ; preds = %102
  %106 = load ptr, ptr %10, align 8
  %107 = load ptr, ptr %15, align 8
  %108 = call ptr @expert_add_info(ptr noundef %106, ptr noundef %107, ptr noundef @ei_wsp_header_invalid_value)
  br label %109

109:                                              ; preds = %105, %102
  %110 = load i32, ptr %18, align 4
  call void @llvm.lifetime.end.p0(i64 8, ptr %22) #8
  call void @llvm.lifetime.end.p0(i64 8, ptr %21) #8
  call void @llvm.lifetime.end.p0(i64 4, ptr %20) #8
  call void @llvm.lifetime.end.p0(i64 4, ptr %19) #8
  call void @llvm.lifetime.end.p0(i64 4, ptr %18) #8
  call void @llvm.lifetime.end.p0(i64 1, ptr %17) #8
  call void @llvm.lifetime.end.p0(i64 4, ptr %16) #8
  call void @llvm.lifetime.end.p0(i64 8, ptr %15) #8
  call void @llvm.lifetime.end.p0(i64 8, ptr %14) #8
  call void @llvm.lifetime.end.p0(i64 1, ptr %13) #8
  ret i32 %110
}