; Function Attrs: null_pointer_is_valid sspstrong uwtable
define internal fastcc i32 @wkh_text_header_func(ptr noundef %0, ptr noundef %1, i32 noundef %2, ptr noundef %3, i32 noundef %4, ptr noundef %5) unnamed_addr #1 {
  %7 = alloca ptr, align 8
  %8 = alloca i32, align 4
  %9 = alloca i32, align 4
  call void @llvm.lifetime.start.p0(i64 8, ptr nonnull %7) #5
  %10 = add i32 %2, 1
  %11 = tail call zeroext i8 @tvb_get_uint8(ptr noundef %1, i32 noundef %10)
  call void @llvm.lifetime.start.p0(i64 4, ptr nonnull %8) #5
  call void @llvm.lifetime.start.p0(i64 4, ptr nonnull %9) #5
  %12 = tail call ptr @wmem_packet_scope()
  %13 = tail call noalias ptr (ptr, ptr, ...) @wmem_strdup_printf(ptr noundef %12, ptr noundef nonnull @.str.1073, ptr noundef %5)
  %14 = load i32, ptr @ett_text_header, align 4
  %15 = call ptr @proto_tree_add_subtree(ptr noundef %0, ptr noundef %1, i32 noundef %2, i32 noundef 1, i32 noundef %14, ptr noundef nonnull %7, ptr noundef %13)
  %16 = load i32, ptr @hf_hdr_name_value, align 4
  %17 = call ptr @proto_tree_add_item(ptr noundef %15, i32 noundef %16, ptr noundef %1, i32 noundef %2, i32 noundef 1, i32 noundef 0)
  %.not = icmp sgt i8 %11, -1
  br i1 %.not, label %20, label %18

18:                                               ; preds = %6
  %19 = add i32 %2, 2
  br label %42

20:                                               ; preds = %6
  %21 = add nsw i8 %11, -32
  %or.cond = icmp ult i8 %21, -31
  br i1 %or.cond, label %35, label %22

22:                                               ; preds = %20
  %23 = icmp eq i8 %11, 31
  br i1 %23, label %24, label %29

24:                                               ; preds = %22
  %25 = add i32 %2, 2
  %26 = call i32 @tvb_get_uintvar(ptr noundef %1, i32 noundef %25, ptr noundef nonnull %9, ptr noundef %3, ptr noundef nonnull @ei_wsp_oversized_uintvar)
  %27 = load i32, ptr %9, align 4
  %28 = add i32 %27, 1
  br label %32

29:                                               ; preds = %22
  %30 = call zeroext i8 @tvb_get_uint8(ptr noundef %1, i32 noundef %10)
  %31 = zext i8 %30 to i32
  br label %32

32:                                               ; preds = %29, %24
  %.sink = phi i32 [ %26, %24 ], [ %31, %29 ]
  %storemerge = phi i32 [ %28, %24 ], [ 1, %29 ]
  store i32 %storemerge, ptr %9, align 4
  %33 = add i32 %storemerge, %10
  %34 = add i32 %33, %.sink
  br label %42

35:                                               ; preds = %20
  %36 = call ptr @wmem_packet_scope()
  %37 = call ptr @tvb_get_stringz_enc(ptr noundef %36, ptr noundef %1, i32 noundef %10, ptr noundef nonnull %8, i32 noundef 0)
  %38 = load i32, ptr %8, align 4
  %39 = add i32 %38, %10
  %40 = sub i32 %39, %2
  %41 = call ptr @proto_tree_add_string(ptr noundef %0, i32 noundef %4, ptr noundef %1, i32 noundef %2, i32 noundef %40, ptr noundef %37)
  br label %45

42:                                               ; preds = %18, %32
  %.039.ph = phi i32 [ %34, %32 ], [ %19, %18 ]
  %43 = load ptr, ptr %7, align 8
  %44 = call ptr @expert_add_info(ptr noundef %3, ptr noundef %43, ptr noundef nonnull @ei_wsp_header_invalid_value)
  br label %45

45:                                               ; preds = %35, %42
  %.03944 = phi i32 [ %.039.ph, %42 ], [ %39, %35 ]
  call void @llvm.lifetime.end.p0(i64 4, ptr nonnull %9) #5
  call void @llvm.lifetime.end.p0(i64 4, ptr nonnull %8) #5
  call void @llvm.lifetime.end.p0(i64 8, ptr nonnull %7) #5
  ret i32 %.03944
}